target datalayout = "e-m:e-p270:32:32-p271:32:32-p272:64:64-i64:64-i128:128-f80:128-n8:16:32:64-S128"
target triple = "x86_64-pc-linux-gnu"

%struct.Qureg = type { i32, i32, i32, i64, i64, i32, i32, %struct.ComplexArray, %struct.ComplexArray, %struct.ComplexArray, ptr, ptr, ptr, ptr, ptr, ptr }
%struct.ComplexArray = type { ptr, ptr }

@__func__.calcProbOfAllOutcomes = private unnamed_addr constant [22 x i8] c"calcProbOfAllOutcomes\00", align 1

; Function Attrs: nounwind uwtable
define void @calcProbOfAllOutcomes(ptr noundef %0, ptr noundef byval(%struct.Qureg) align 8 %1, ptr noundef %2, i32 noundef %3) #0 {
  %5 = alloca ptr, align 8
  %6 = alloca ptr, align 8
  %7 = alloca i32, align 4
  store ptr %0, ptr %5, align 8, !tbaa !23
  store ptr %2, ptr %6, align 8, !tbaa !27
  store i32 %3, ptr %7, align 4, !tbaa !4
  %8 = load ptr, ptr %6, align 8, !tbaa !27
  %9 = load i32, ptr %7, align 4, !tbaa !4
  call void @validateMultiTargets(ptr noundef byval(%struct.Qureg) align 8 %1, ptr noundef %8, i32 noundef %9, ptr noundef @__func__.calcProbOfAllOutcomes)
  %10 = getelementptr inbounds nuw %struct.Qureg, ptr %1, i32 0, i32 0
  %11 = load i32, ptr %10, align 8, !tbaa !13
  %12 = icmp ne i32 %11, 0
  br i1 %12, label %13, label %17

13:                                               ; preds = %4
  %14 = load ptr, ptr %5, align 8, !tbaa !23
  %15 = load ptr, ptr %6, align 8, !tbaa !27
  %16 = load i32, ptr %7, align 4, !tbaa !4
  call void @densmatr_calcProbOfAllOutcomes(ptr noundef %14, ptr noundef byval(%struct.Qureg) align 8 %1, ptr noundef %15, i32 noundef %16)
  br label %21

17:                                               ; preds = %4
  %18 = load ptr, ptr %5, align 8, !tbaa !23
  %19 = load ptr, ptr %6, align 8, !tbaa !27
  %20 = load i32, ptr %7, align 4, !tbaa !4
  call void @statevec_calcProbOfAllOutcomes(ptr noundef %18, ptr noundef byval(%struct.Qureg) align 8 %1, ptr noundef %19, i32 noundef %20)
  br label %21

21:                                               ; preds = %17, %13
  ret void
}