; Function Attrs: nounwind uwtable
define void @calcProbOfAllOutcomes(ptr noundef %0, ptr noundef readonly byval(%struct.Qureg) align 8 captures(none) %1, ptr noundef %2, i32 noundef %3) local_unnamed_addr #0 {
  tail call void @validateMultiTargets(ptr noundef nonnull byval(%struct.Qureg) align 8 %1, ptr noundef %2, i32 noundef %3, ptr noundef nonnull @__func__.calcProbOfAllOutcomes) #17
  %5 = load i32, ptr %1, align 8, !tbaa !12
  %.not = icmp eq i32 %5, 0
  br i1 %.not, label %7, label %6

6:                                                ; preds = %4
  tail call void @densmatr_calcProbOfAllOutcomes(ptr noundef %0, ptr noundef nonnull byval(%struct.Qureg) align 8 %1, ptr noundef %2, i32 noundef %3) #17
  br label %8

7:                                                ; preds = %4
  tail call void @statevec_calcProbOfAllOutcomes(ptr noundef %0, ptr noundef nonnull byval(%struct.Qureg) align 8 %1, ptr noundef %2, i32 noundef %3) #17
  br label %8

8:                                                ; preds = %7, %6
  ret void
}